#include <math.h>
#include <stdio.h>
#include <stdlib.h>
#include <string.h>

int main(){
    int m,n,i,k,N=100;
    double a[N],b;
    scanf("%d",&m);
    for(i=0;i<m;i++){
        scanf("%d",&n);
        a[0]=1.0;a[1]=2.0;b=0;
        for(k=2;k<=n+1;k++){
            a[k]=a[k-1]+a[k-2];
            b=b+(a[k-1]/a[k-2]);
        }
        printf("%.3lf\n",b);
    }
    return 0;
}