; ModuleID = '29/1514.c'
source_filename = "29/1514.c"
target datalayout = "e-m:e-p270:32:32-p271:32:32-p272:64:64-i64:64-f80:128-n8:16:32:64-S128"
target triple = "x86_64-pc-linux-gnu"

@.str = private unnamed_addr constant [3 x i8] c"%d\00", align 1
@.str.1 = private unnamed_addr constant [7 x i8] c"%.3lf\0A\00", align 1

; Function Attrs: noinline nounwind uwtable
define dso_local i32 @main() #0 {
  %1 = alloca i32, align 4
  %2 = alloca i32, align 4
  %3 = alloca i32, align 4
  %4 = alloca i32, align 4
  %5 = alloca i32, align 4
  %6 = alloca i32, align 4
  %7 = alloca i8*, align 8
  %8 = alloca i64, align 8
  %9 = alloca double, align 8
  store i32 0, i32* %1, align 4
  store i32 100, i32* %6, align 4
  %10 = load i32, i32* %6, align 4
  %11 = zext i32 %10 to i64
  %12 = call i8* @llvm.stacksave()
  store i8* %12, i8** %7, align 8
  %13 = alloca double, i64 %11, align 16
  store i64 %11, i64* %8, align 8
  %14 = call i32 (i8*, ...) @__isoc99_scanf(i8* getelementptr inbounds ([3 x i8], [3 x i8]* @.str, i64 0, i64 0), i32* %2)
  store i32 0, i32* %4, align 4
  br label %15

15:                                               ; preds = %62, %0
  %16 = load i32, i32* %4, align 4
  %17 = load i32, i32* %2, align 4
  %18 = icmp slt i32 %16, %17
  br i1 %18, label %19, label %65

19:                                               ; preds = %15
  %20 = call i32 (i8*, ...) @__isoc99_scanf(i8* getelementptr inbounds ([3 x i8], [3 x i8]* @.str, i64 0, i64 0), i32* %3)
  %21 = getelementptr inbounds double, double* %13, i64 0
  store double 1.000000e+00, double* %21, align 16
  %22 = getelementptr inbounds double, double* %13, i64 1
  store double 2.000000e+00, double* %22, align 8
  store double 0.000000e+00, double* %9, align 8
  store i32 2, i32* %5, align 4
  br label %23

23:                                               ; preds = %56, %19
  %24 = load i32, i32* %5, align 4
  %25 = load i32, i32* %3, align 4
  %26 = add nsw i32 %25, 1
  %27 = icmp sle i32 %24, %26
  br i1 %27, label %28, label %59

28:                                               ; preds = %23
  %29 = load i32, i32* %5, align 4
  %30 = sub nsw i32 %29, 1
  %31 = sext i32 %30 to i64
  %32 = getelementptr inbounds double, double* %13, i64 %31
  %33 = load double, double* %32, align 8
  %34 = load i32, i32* %5, align 4
  %35 = sub nsw i32 %34, 2
  %36 = sext i32 %35 to i64
  %37 = getelementptr inbounds double, double* %13, i64 %36
  %38 = load double, double* %37, align 8
  %39 = fadd double %33, %38
  %40 = load i32, i32* %5, align 4
  %41 = sext i32 %40 to i64
  %42 = getelementptr inbounds double, double* %13, i64 %41
  store double %39, double* %42, align 8
  %43 = load double, double* %9, align 8
  %44 = load i32, i32* %5, align 4
  %45 = sub nsw i32 %44, 1
  %46 = sext i32 %45 to i64
  %47 = getelementptr inbounds double, double* %13, i64 %46
  %48 = load double, double* %47, align 8
  %49 = load i32, i32* %5, align 4
  %50 = sub nsw i32 %49, 2
  %51 = sext i32 %50 to i64
  %52 = getelementptr inbounds double, double* %13, i64 %51
  %53 = load double, double* %52, align 8
  %54 = fdiv double %48, %53
  %55 = fadd double %43, %54
  store double %55, double* %9, align 8
  br label %56

56:                                               ; preds = %28
  %57 = load i32, i32* %5, align 4
  %58 = add nsw i32 %57, 1
  store i32 %58, i32* %5, align 4
  br label %23

59:                                               ; preds = %23
  %60 = load double, double* %9, align 8
  %61 = call i32 (i8*, ...) @printf(i8* getelementptr inbounds ([7 x i8], [7 x i8]* @.str.1, i64 0, i64 0), double %60)
  br label %62

62:                                               ; preds = %59
  %63 = load i32, i32* %4, align 4
  %64 = add nsw i32 %63, 1
  store i32 %64, i32* %4, align 4
  br label %15

65:                                               ; preds = %15
  store i32 0, i32* %1, align 4
  %66 = load i8*, i8** %7, align 8
  call void @llvm.stackrestore(i8* %66)
  %67 = load i32, i32* %1, align 4
  ret i32 %67
}

; Function Attrs: nounwind
declare i8* @llvm.stacksave() #1

declare dso_local i32 @__isoc99_scanf(i8*, ...) #2

declare dso_local i32 @printf(i8*, ...) #2

; Function Attrs: nounwind
declare void @llvm.stackrestore(i8*) #1


!llvm.module.flags = !{!0}
!llvm.ident = !{!1}

!0 = !{i32 1, !"wchar_size", i32 4}
!1 = !{!"clang version 10.0.0-4ubuntu1 "}
