; ModuleID = 'source-C-CXX/28/1514.c'
source_filename = "source-C-CXX/28/1514.c"
target datalayout = "e-m:e-p270:32:32-p271:32:32-p272:64:64-i64:64-f80:128-n8:16:32:64-S128"
target triple = "x86_64-pc-linux-gnu"

@.str = private unnamed_addr constant [3 x i8] c"%d\00", align 1
@.str.1 = private unnamed_addr constant [7 x i8] c"%.3lf\0A\00", align 1

; Function Attrs: nofree nounwind sspstrong uwtable
define dso_local i32 @main() local_unnamed_addr #0 {
  %1 = alloca i32, align 4
  %2 = alloca i32, align 4
  %3 = bitcast i32* %1 to i8*
  call void @llvm.lifetime.start.p0i8(i64 4, i8* nonnull %3) #4
  %4 = bitcast i32* %2 to i8*
  call void @llvm.lifetime.start.p0i8(i64 4, i8* nonnull %4) #4
  %5 = tail call i8* @llvm.stacksave()
  %6 = alloca [100 x double], align 16
  %7 = call i32 (i8*, ...) @__isoc99_scanf(i8* getelementptr inbounds ([3 x i8], [3 x i8]* @.str, i64 0, i64 0), i32* nonnull %1)
  %8 = load i32, i32* %1, align 4, !tbaa !5
  %9 = icmp sgt i32 %8, 0
  br i1 %9, label %10, label %75

10:                                               ; preds = %0
  %11 = bitcast [100 x double]* %6 to <2 x double>*
  %12 = getelementptr inbounds [100 x double], [100 x double]* %6, i64 0, i64 2
  br label %13

13:                                               ; preds = %10, %69
  %14 = phi i32 [ %72, %69 ], [ 0, %10 ]
  %15 = call i32 (i8*, ...) @__isoc99_scanf(i8* getelementptr inbounds ([3 x i8], [3 x i8]* @.str, i64 0, i64 0), i32* nonnull %2)
  store <2 x double> <double 1.000000e+00, double 2.000000e+00>, <2 x double>* %11, align 16, !tbaa !9
  %16 = load i32, i32* %2, align 4, !tbaa !5
  %17 = icmp slt i32 %16, 1
  br i1 %17, label %69, label %18

18:                                               ; preds = %13
  %19 = add nuw i32 %16, 2
  store double 3.000000e+00, double* %12, align 16, !tbaa !9
  %20 = icmp eq i32 %19, 3
  br i1 %20, label %69, label %21, !llvm.loop !11

21:                                               ; preds = %18
  %22 = zext i32 %16 to i64
  %23 = add nsw i64 %22, -1
  %24 = and i64 %23, 1
  %25 = icmp eq i32 %19, 4
  br i1 %25, label %53, label %26

26:                                               ; preds = %21
  %27 = and i64 %23, -2
  br label %28

28:                                               ; preds = %28, %26
  %29 = phi i64 [ 3, %26 ], [ %50, %28 ]
  %30 = phi double [ 2.000000e+00, %26 ], [ %49, %28 ]
  %31 = phi double [ 3.000000e+00, %26 ], [ %46, %28 ]
  %32 = phi i64 [ 2, %26 ], [ %42, %28 ]
  %33 = phi double [ 2.000000e+00, %26 ], [ %38, %28 ]
  %34 = phi i64 [ %27, %26 ], [ %51, %28 ]
  %35 = add nsw i64 %32, -1
  %36 = getelementptr inbounds [100 x double], [100 x double]* %6, i64 0, i64 %35
  %37 = load double, double* %36, align 8, !tbaa !9
  %38 = fadd double %31, %33
  %39 = getelementptr inbounds [100 x double], [100 x double]* %6, i64 0, i64 %29
  store double %38, double* %39, align 8, !tbaa !9
  %40 = fdiv double %31, %37
  %41 = fadd double %30, %40
  %42 = add nuw nsw i64 %29, 1
  %43 = add nsw i64 %29, -1
  %44 = getelementptr inbounds [100 x double], [100 x double]* %6, i64 0, i64 %43
  %45 = load double, double* %44, align 8, !tbaa !9
  %46 = fadd double %38, %31
  %47 = getelementptr inbounds [100 x double], [100 x double]* %6, i64 0, i64 %42
  store double %46, double* %47, align 8, !tbaa !9
  %48 = fdiv double %38, %45
  %49 = fadd double %41, %48
  %50 = add nuw nsw i64 %29, 2
  %51 = add i64 %34, -2
  %52 = icmp eq i64 %51, 0
  br i1 %52, label %53, label %28, !llvm.loop !11

53:                                               ; preds = %28, %21
  %54 = phi double [ undef, %21 ], [ %49, %28 ]
  %55 = phi i64 [ 3, %21 ], [ %50, %28 ]
  %56 = phi double [ 2.000000e+00, %21 ], [ %49, %28 ]
  %57 = phi double [ 3.000000e+00, %21 ], [ %46, %28 ]
  %58 = phi i64 [ 2, %21 ], [ %42, %28 ]
  %59 = phi double [ 2.000000e+00, %21 ], [ %38, %28 ]
  %60 = icmp eq i64 %24, 0
  br i1 %60, label %69, label %61

61:                                               ; preds = %53
  %62 = add nsw i64 %58, -1
  %63 = getelementptr inbounds [100 x double], [100 x double]* %6, i64 0, i64 %62
  %64 = load double, double* %63, align 8, !tbaa !9
  %65 = fadd double %57, %59
  %66 = getelementptr inbounds [100 x double], [100 x double]* %6, i64 0, i64 %55
  store double %65, double* %66, align 8, !tbaa !9
  %67 = fdiv double %57, %64
  %68 = fadd double %56, %67
  br label %69

69:                                               ; preds = %61, %53, %18, %13
  %70 = phi double [ 0.000000e+00, %13 ], [ 2.000000e+00, %18 ], [ %54, %53 ], [ %68, %61 ]
  %71 = call i32 (i8*, ...) @printf(i8* nonnull dereferenceable(1) getelementptr inbounds ([7 x i8], [7 x i8]* @.str.1, i64 0, i64 0), double %70)
  %72 = add nuw nsw i32 %14, 1
  %73 = load i32, i32* %1, align 4, !tbaa !5
  %74 = icmp slt i32 %72, %73
  br i1 %74, label %13, label %75, !llvm.loop !13

75:                                               ; preds = %69, %0
  call void @llvm.stackrestore(i8* %5)
  call void @llvm.lifetime.end.p0i8(i64 4, i8* nonnull %4) #4
  call void @llvm.lifetime.end.p0i8(i64 4, i8* nonnull %3) #4
  ret i32 0
}

; Function Attrs: argmemonly mustprogress nofree nosync nounwind willreturn
declare void @llvm.lifetime.start.p0i8(i64 immarg, i8* nocapture) #1

; Function Attrs: mustprogress nofree nosync nounwind willreturn
declare i8* @llvm.stacksave() #2

; Function Attrs: nofree nounwind
declare noundef i32 @__isoc99_scanf(i8* nocapture noundef readonly, ...) local_unnamed_addr #3

; Function Attrs: nofree nounwind
declare noundef i32 @printf(i8* nocapture noundef readonly, ...) local_unnamed_addr #3

; Function Attrs: argmemonly mustprogress nofree nosync nounwind willreturn
declare void @llvm.lifetime.end.p0i8(i64 immarg, i8* nocapture) #1

; Function Attrs: mustprogress nofree nosync nounwind willreturn
declare void @llvm.stackrestore(i8*) #2


!llvm.module.flags = !{!0, !1, !2, !3}
!llvm.ident = !{!4}

!0 = !{i32 1, !"wchar_size", i32 4}
!1 = !{i32 7, !"PIC Level", i32 2}
!2 = !{i32 7, !"PIE Level", i32 2}
!3 = !{i32 7, !"uwtable", i32 1}
!4 = !{!"clang version 13.0.0"}
!5 = !{!6, !6, i64 0}
!6 = !{!"int", !7, i64 0}
!7 = !{!"omnipotent char", !8, i64 0}
!8 = !{!"Simple C/C++ TBAA"}
!9 = !{!10, !10, i64 0}
!10 = !{!"double", !7, i64 0}
!11 = distinct !{!11, !12}
!12 = !{!"llvm.loop.mustprogress"}
!13 = distinct !{!13, !12}
